target datalayout = "e-m:e-p270:32:32-p271:32:32-p272:64:64-i64:64-i128:128-f80:128-n8:16:32:64-S128"
target triple = "x86_64-pc-linux-gnu"

%struct.Pe_Import_t = type { ptr, i32, i32, ptr, i32, i32 }

; Function Attrs: mustprogress nounwind uwtable
define hidden void @_ZN4LIEF2PE22destroy_import_entriesEP11Pe_Import_t(ptr noundef %0) #0 {
  %2 = alloca ptr, align 8
  %3 = alloca ptr, align 8
  %4 = alloca i64, align 8
  store ptr %0, ptr %2, align 8, !tbaa !3
  call void @llvm.lifetime.start.p0(i64 8, ptr %3) #8
  %5 = load ptr, ptr %2, align 8, !tbaa !3
  %6 = getelementptr inbounds nuw %struct.Pe_Import_t, ptr %5, i32 0, i32 3
  %7 = load ptr, ptr %6, align 8, !tbaa !10
  store ptr %7, ptr %3, align 8, !tbaa !55
  call void @llvm.lifetime.start.p0(i64 8, ptr %4) #8
  store i64 0, ptr %4, align 8, !tbaa !16
  br label %8

8:                                                ; preds = %20, %1
  %9 = load ptr, ptr %3, align 8, !tbaa !55
  %10 = load i64, ptr %4, align 8, !tbaa !16
  %11 = getelementptr inbounds nuw ptr, ptr %9, i64 %10
  %12 = load ptr, ptr %11, align 8, !tbaa !20
  %13 = icmp ne ptr %12, null
  br i1 %13, label %15, label %14

14:                                               ; preds = %8
  call void @llvm.lifetime.end.p0(i64 8, ptr %4) #8
  br label %23

15:                                               ; preds = %8
  %16 = load ptr, ptr %3, align 8, !tbaa !55
  %17 = load i64, ptr %4, align 8, !tbaa !16
  %18 = getelementptr inbounds nuw ptr, ptr %16, i64 %17
  %19 = load ptr, ptr %18, align 8, !tbaa !20
  call void @free(ptr noundef %19) #8
  br label %20

20:                                               ; preds = %15
  %21 = load i64, ptr %4, align 8, !tbaa !16
  %22 = add i64 %21, 1
  store i64 %22, ptr %4, align 8, !tbaa !16
  br label %8, !llvm.loop !56

23:                                               ; preds = %14
  %24 = load ptr, ptr %2, align 8, !tbaa !3
  %25 = getelementptr inbounds nuw %struct.Pe_Import_t, ptr %24, i32 0, i32 3
  %26 = load ptr, ptr %25, align 8, !tbaa !10
  call void @free(ptr noundef %26) #8
  call void @llvm.lifetime.end.p0(i64 8, ptr %3) #8
  ret void
}