; Function Attrs: mustprogress nounwind uwtable
define hidden void @_ZN4LIEF2PE22destroy_import_entriesEP11Pe_Import_t(ptr noundef readonly captures(none) %0) local_unnamed_addr #0 {
  %2 = getelementptr inbounds nuw i8, ptr %0, i64 16
  %3 = load ptr, ptr %2, align 8, !tbaa !13
  %4 = load ptr, ptr %3, align 8, !tbaa !19
  %.not7 = icmp eq ptr %4, null
  br i1 %.not7, label %._crit_edge, label %.lr.ph

._crit_edge.loopexit:                             ; preds = %.lr.ph
  %.pre = load ptr, ptr %2, align 8, !tbaa !13
  br label %._crit_edge

._crit_edge:                                      ; preds = %._crit_edge.loopexit, %1
  %5 = phi ptr [ %.pre, %._crit_edge.loopexit ], [ %3, %1 ]
  tail call void @free(ptr noundef %5) #5
  ret void

.lr.ph:                                           ; preds = %1, %.lr.ph
  %6 = phi ptr [ %9, %.lr.ph ], [ %4, %1 ]
  %.08 = phi i64 [ %7, %.lr.ph ], [ 0, %1 ]
  tail call void @free(ptr noundef nonnull %6) #5
  %7 = add i64 %.08, 1
  %8 = getelementptr inbounds nuw ptr, ptr %3, i64 %7
  %9 = load ptr, ptr %8, align 8, !tbaa !19
  %.not = icmp eq ptr %9, null
  br i1 %.not, label %._crit_edge.loopexit, label %.lr.ph, !llvm.loop !49
}